target datalayout = "e-m:e-p270:32:32-p271:32:32-p272:64:64-i64:64-i128:128-f80:128-n8:16:32:64-S128"
target triple = "x86_64-unknown-linux-gnu"

%"class.grpc_core::BackOff::Options" = type { %"class.grpc_core::Duration", double, double, %"class.grpc_core::Duration" }
%"class.grpc_core::Duration" = type { i64 }
%"class.grpc_core::PollingResolver" = type { %"class.grpc_core::Resolver", %"class.std::__cxx11::basic_string", %"class.std::__cxx11::basic_string", %"class.grpc_core::ChannelArgs", %"class.std::shared_ptr", %"class.std::unique_ptr", ptr, ptr, i8, %"class.std::unique_ptr.8", %"class.grpc_core::Duration", %"class.std::optional", %"class.grpc_core::BackOff", i32, [4 x i8], %"class.std::optional.16" }
%"class.grpc_core::Resolver" = type { %"class.grpc_core::InternallyRefCounted" }
%"class.grpc_core::InternallyRefCounted" = type { %"class.grpc_core::Orphanable", %"class.grpc_core::RefCount" }
%"class.grpc_core::Orphanable" = type { ptr }
%"class.grpc_core::RefCount" = type { %"struct.std::atomic" }
%"struct.std::atomic" = type { %"struct.std::__atomic_base" }
%"struct.std::__atomic_base" = type { i64 }
%"class.std::__cxx11::basic_string" = type { %"struct.std::__cxx11::basic_string<char>::_Alloc_hider", i64, %union.anon }
%"struct.std::__cxx11::basic_string<char>::_Alloc_hider" = type { ptr }
%union.anon = type { i64, [8 x i8] }
%"class.grpc_core::ChannelArgs" = type { %"class.grpc_core::AVL" }
%"class.grpc_core::AVL" = type { %"class.grpc_core::RefCountedPtr" }
%"class.grpc_core::RefCountedPtr" = type { ptr }
%"class.std::shared_ptr" = type { %"class.std::__shared_ptr" }
%"class.std::__shared_ptr" = type { ptr, %"class.std::__shared_count" }
%"class.std::__shared_count" = type { ptr }
%"class.std::unique_ptr" = type { %"struct.std::__uniq_ptr_data" }
%"struct.std::__uniq_ptr_data" = type { %"class.std::__uniq_ptr_impl" }
%"class.std::__uniq_ptr_impl" = type { %"class.std::tuple" }
%"class.std::tuple" = type { %"struct.std::_Tuple_impl" }
%"struct.std::_Tuple_impl" = type { %"struct.std::_Head_base.7" }
%"struct.std::_Head_base.7" = type { ptr }
%"class.std::unique_ptr.8" = type { %"struct.std::__uniq_ptr_data.9" }
%"struct.std::__uniq_ptr_data.9" = type { %"class.std::__uniq_ptr_impl.10" }
%"class.std::__uniq_ptr_impl.10" = type { %"class.std::tuple.11" }
%"class.std::tuple.11" = type { %"struct.std::_Tuple_impl.12" }
%"struct.std::_Tuple_impl.12" = type { %"struct.std::_Head_base.15" }
%"struct.std::_Head_base.15" = type { ptr }
%"class.std::optional" = type { %"struct.std::_Optional_base" }
%"struct.std::_Optional_base" = type { %"struct.std::_Optional_payload" }
%"struct.std::_Optional_payload" = type { %"struct.std::_Optional_payload_base.base", [7 x i8] }
%"struct.std::_Optional_payload_base.base" = type <{ %"union.std::_Optional_payload_base<grpc_core::Timestamp>::_Storage", i8 }>
%"union.std::_Optional_payload_base<grpc_core::Timestamp>::_Storage" = type { %"class.grpc_core::Timestamp" }
%"class.grpc_core::Timestamp" = type { i64 }
%"class.grpc_core::BackOff" = type { %"class.grpc_core::BackOff::Options", %"class.absl::lts_20230802::random_internal::NonsecureURBGBase", i8, %"class.grpc_core::Duration" }
%"class.absl::lts_20230802::random_internal::NonsecureURBGBase" = type { %"class.absl::lts_20230802::random_internal::randen_engine" }
%"class.absl::lts_20230802::random_internal::randen_engine" = type { [264 x i8], i64, %"class.absl::lts_20230802::random_internal::Randen" }
%"class.absl::lts_20230802::random_internal::Randen" = type <{ ptr, i8, [7 x i8] }>
%"class.std::optional.16" = type { %"struct.std::_Optional_base.17" }
%"struct.std::_Optional_base.17" = type { %"struct.std::_Optional_payload.19" }
%"struct.std::_Optional_payload.19" = type { %"struct.std::_Optional_payload_base.base.21", [7 x i8] }
%"struct.std::_Optional_payload_base.base.21" = type <{ %"union.std::_Optional_payload_base<grpc_event_engine::experimental::EventEngine::TaskHandle>::_Storage", i8 }>
%"union.std::_Optional_payload_base<grpc_event_engine::experimental::EventEngine::TaskHandle>::_Storage" = type { %"struct.grpc_event_engine::experimental::EventEngine::TaskHandle" }
%"struct.grpc_event_engine::experimental::EventEngine::TaskHandle" = type { [2 x i64] }

; Function Attrs: mustprogress nounwind uwtable
define linkonce_odr noundef nonnull align 8 dereferenceable(8) ptr @_ZNSt10_Head_baseILm0EPN9grpc_core10OrphanableELb0EE7_M_headERKS3_(ptr noundef nonnull align 8 dereferenceable(8) %__b) #5 comdat align 2 {
entry:
  %__b.addr = alloca ptr, align 8
  store ptr %__b, ptr %__b.addr, align 8
  %0 = load ptr, ptr %__b.addr, align 8
  %_M_head_impl = getelementptr inbounds %"struct.std::_Head_base.15", ptr %0, i32 0, i32 0
  ret ptr %_M_head_impl
}

; Function Attrs: mustprogress nounwind uwtable
define linkonce_odr noundef nonnull align 8 dereferenceable(8) ptr @_ZNSt11_Tuple_implILm0EJPN9grpc_core10OrphanableENS0_16OrphanableDeleteEEE7_M_headERKS4_(ptr noundef nonnull align 8 dereferenceable(8) %__t) #5 comdat align 2 {
entry:
  %__t.addr = alloca ptr, align 8
  store ptr %__t, ptr %__t.addr, align 8
  %0 = load ptr, ptr %__t.addr, align 8
  %call = call noundef nonnull align 8 dereferenceable(8) ptr @_ZNSt10_Head_baseILm0EPN9grpc_core10OrphanableELb0EE7_M_headERKS3_(ptr noundef nonnull align 8 dereferenceable(8) %0) #3
  ret ptr %call
}

; Function Attrs: mustprogress nounwind uwtable
define linkonce_odr noundef nonnull align 8 dereferenceable(8) ptr @_ZSt12__get_helperILm0EPN9grpc_core10OrphanableEJNS0_16OrphanableDeleteEEERKT0_RKSt11_Tuple_implIXT_EJS4_DpT1_EE(ptr noundef nonnull align 8 dereferenceable(8) %__t) #5 comdat {
entry:
  %__t.addr = alloca ptr, align 8
  store ptr %__t, ptr %__t.addr, align 8
  %0 = load ptr, ptr %__t.addr, align 8
  %call = call noundef nonnull align 8 dereferenceable(8) ptr @_ZNSt11_Tuple_implILm0EJPN9grpc_core10OrphanableENS0_16OrphanableDeleteEEE7_M_headERKS4_(ptr noundef nonnull align 8 dereferenceable(8) %0) #3
  ret ptr %call
}

; Function Attrs: mustprogress nounwind uwtable
define linkonce_odr noundef nonnull align 8 dereferenceable(8) ptr @_ZSt3getILm0EJPN9grpc_core10OrphanableENS0_16OrphanableDeleteEEERKNSt13tuple_elementIXT_ESt5tupleIJDpT0_EEE4typeERKS8_(ptr noundef nonnull align 8 dereferenceable(8) %__t) #5 comdat {
entry:
  %__t.addr = alloca ptr, align 8
  store ptr %__t, ptr %__t.addr, align 8
  %0 = load ptr, ptr %__t.addr, align 8
  %call = call noundef nonnull align 8 dereferenceable(8) ptr @_ZSt12__get_helperILm0EPN9grpc_core10OrphanableEJNS0_16OrphanableDeleteEEERKT0_RKSt11_Tuple_implIXT_EJS4_DpT1_EE(ptr noundef nonnull align 8 dereferenceable(8) %0) #3
  ret ptr %call
}

; Function Attrs: mustprogress nounwind uwtable
define linkonce_odr noundef ptr @_ZNKSt15__uniq_ptr_implIN9grpc_core10OrphanableENS0_16OrphanableDeleteEE6_M_ptrEv(ptr noundef nonnull align 8 dereferenceable(8) %this) #5 comdat align 2 {
entry:
  %this.addr = alloca ptr, align 8
  store ptr %this, ptr %this.addr, align 8
  %this1 = load ptr, ptr %this.addr, align 8
  %_M_t = getelementptr inbounds %"class.std::__uniq_ptr_impl.10", ptr %this1, i32 0, i32 0
  %call = call noundef nonnull align 8 dereferenceable(8) ptr @_ZSt3getILm0EJPN9grpc_core10OrphanableENS0_16OrphanableDeleteEEERKNSt13tuple_elementIXT_ESt5tupleIJDpT0_EEE4typeERKS8_(ptr noundef nonnull align 8 dereferenceable(8) %_M_t) #3
  %0 = load ptr, ptr %call, align 8
  ret ptr %0
}

; Function Attrs: mustprogress nounwind uwtable
define linkonce_odr noundef ptr @_ZNKSt10unique_ptrIN9grpc_core10OrphanableENS0_16OrphanableDeleteEE3getEv(ptr noundef nonnull align 8 dereferenceable(8) %this) #5 comdat align 2 {
entry:
  %this.addr = alloca ptr, align 8
  store ptr %this, ptr %this.addr, align 8
  %this1 = load ptr, ptr %this.addr, align 8
  %_M_t = getelementptr inbounds %"class.std::unique_ptr.8", ptr %this1, i32 0, i32 0
  %call = call noundef ptr @_ZNKSt15__uniq_ptr_implIN9grpc_core10OrphanableENS0_16OrphanableDeleteEE6_M_ptrEv(ptr noundef nonnull align 8 dereferenceable(8) %_M_t) #3
  ret ptr %call
}

; Function Attrs: mustprogress nounwind uwtable
define linkonce_odr noundef zeroext i1 @_ZNKSt10unique_ptrIN9grpc_core10OrphanableENS0_16OrphanableDeleteEEcvbEv(ptr noundef nonnull align 8 dereferenceable(8) %this) #5 comdat align 2 {
entry:
  %this.addr = alloca ptr, align 8
  store ptr %this, ptr %this.addr, align 8
  %this1 = load ptr, ptr %this.addr, align 8
  %call = call noundef ptr @_ZNKSt10unique_ptrIN9grpc_core10OrphanableENS0_16OrphanableDeleteEE3getEv(ptr noundef nonnull align 8 dereferenceable(8) %this1) #3
  %cmp = icmp eq ptr %call, null
  %cond = select i1 %cmp, i1 false, i1 true
  ret i1 %cond
}

; Function Attrs: mustprogress nounwind uwtable
define linkonce_odr noundef zeroext i1 @_ZSteqIN9grpc_core10OrphanableENS0_16OrphanableDeleteEEbRKSt10unique_ptrIT_T0_EDn(ptr noundef nonnull align 8 dereferenceable(8) %__x, ptr %0) #5 comdat {
entry:
  %__x.addr = alloca ptr, align 8
  %.addr = alloca ptr, align 8
  store ptr %__x, ptr %__x.addr, align 8
  store ptr %0, ptr %.addr, align 8
  %1 = load ptr, ptr %__x.addr, align 8
  %call = call noundef zeroext i1 @_ZNKSt10unique_ptrIN9grpc_core10OrphanableENS0_16OrphanableDeleteEEcvbEv(ptr noundef nonnull align 8 dereferenceable(8) %1) #3
  %lnot = xor i1 %call, true
  ret i1 %lnot
}

; Function Attrs: mustprogress uwtable
define void @_ZN9grpc_core15PollingResolver25RequestReresolutionLockedEv(ptr noundef nonnull align 8 dereferenceable(536) %this) unnamed_addr #4 align 2 {
entry:
  %this.addr = alloca ptr, align 8
  store ptr %this, ptr %this.addr, align 8
  %this1 = load ptr, ptr %this.addr, align 8
  %request_ = getelementptr inbounds %"class.grpc_core::PollingResolver", ptr %this1, i32 0, i32 9
  %call = call noundef zeroext i1 @_ZSteqIN9grpc_core10OrphanableENS0_16OrphanableDeleteEEbRKSt10unique_ptrIT_T0_EDn(ptr noundef nonnull align 8 dereferenceable(8) %request_, ptr null) #3
  br i1 %call, label %if.then, label %if.end4

if.then:                                          ; preds = %entry
  %result_status_state_ = getelementptr inbounds %"class.grpc_core::PollingResolver", ptr %this1, i32 0, i32 13
  %0 = load i32, ptr %result_status_state_, align 8
  %cmp = icmp eq i32 %0, 1
  br i1 %cmp, label %if.then2, label %if.else

if.then2:                                         ; preds = %if.then
  %result_status_state_3 = getelementptr inbounds %"class.grpc_core::PollingResolver", ptr %this1, i32 0, i32 13
  store i32 2, ptr %result_status_state_3, align 8
  br label %if.end

if.else:                                          ; preds = %if.then
  call void @_ZN9grpc_core15PollingResolver25MaybeStartResolvingLockedEv(ptr noundef nonnull align 8 dereferenceable(536) %this1)
  br label %if.end

if.end:                                           ; preds = %if.else, %if.then2
  br label %if.end4

if.end4:                                          ; preds = %if.end, %entry
  ret void
}