; Function Attrs: mustprogress uwtable
define void @_ZN9grpc_core15PollingResolver25RequestReresolutionLockedEv(ptr noundef nonnull align 8 dereferenceable(536) %this) unnamed_addr #3 align 2 {
entry:
  %request_ = getelementptr inbounds i8, ptr %this, i64 136
  %0 = load ptr, ptr %request_, align 8
  %cmp.i.not.i = icmp eq ptr %0, null
  br i1 %cmp.i.not.i, label %if.then, label %if.end4

if.then:                                          ; preds = %entry
  %result_status_state_ = getelementptr inbounds i8, ptr %this, i64 504
  %1 = load i32, ptr %result_status_state_, align 8
  %cmp = icmp eq i32 %1, 1
  br i1 %cmp, label %if.then2, label %if.else

if.then2:                                         ; preds = %if.then
  store i32 2, ptr %result_status_state_, align 8
  br label %if.end4

if.else:                                          ; preds = %if.then
  tail call void @_ZN9grpc_core15PollingResolver25MaybeStartResolvingLockedEv(ptr noundef nonnull align 8 dereferenceable(536) %this)
  br label %if.end4

if.end4:                                          ; preds = %if.then2, %if.else, %entry
  ret void
}